; Function Attrs: mustprogress nofree norecurse nosync nounwind willreturn memory(argmem: readwrite) uwtable
define internal nonnull ptr @Pack3BytesAndSkip1SwapOptimized(ptr nocapture readnone %0, ptr nocapture noundef readonly %1, ptr noundef writeonly %2, i32 %3) #3 {
  %5 = getelementptr inbounds i8, ptr %2, i64 1
  %6 = getelementptr inbounds i8, ptr %1, i64 4
  %7 = load i16, ptr %6, align 2
  %8 = trunc i16 %7 to i8
  %9 = getelementptr inbounds i8, ptr %2, i64 2
  store i8 %8, ptr %5, align 1
  %10 = getelementptr inbounds i8, ptr %1, i64 2
  %11 = load i16, ptr %10, align 2
  %12 = trunc i16 %11 to i8
  %13 = getelementptr inbounds i8, ptr %2, i64 3
  store i8 %12, ptr %9, align 1
  %14 = load i16, ptr %1, align 2
  %15 = trunc i16 %14 to i8
  %16 = getelementptr inbounds i8, ptr %2, i64 4
  store i8 %15, ptr %13, align 1
  ret ptr %16
}